target datalayout = "e-m:e-p270:32:32-p271:32:32-p272:64:64-i64:64-i128:128-f80:128-n8:16:32:64-S128"
target triple = "x86_64-pc-linux-gnu"

%"class.std::ios_base" = type { ptr, i64, i64, i32, i32, i32, ptr, %"struct.std::ios_base::_Words", [8 x %"struct.std::ios_base::_Words"], i32, ptr, %"class.std::locale" }
%"struct.std::ios_base::_Words" = type { ptr, i64 }
%"class.std::locale" = type { ptr }
%"class.lean::object_ref" = type { ptr }
%struct.lean_object = type { i32, i32 }

@.str = private unnamed_addr constant [2 x i8] c".\00", align 1
@.str.2 = private unnamed_addr constant [12 x i8] c"[anonymous]\00", align 1

; Function Attrs: inlinehint mustprogress nounwind uwtable
define internal noundef zeroext i8 @_ZL12lean_ptr_tagP11lean_object(ptr noundef %0) #6 {
  %2 = alloca ptr, align 8
  store ptr %0, ptr %2, align 8, !tbaa !13
  %3 = load ptr, ptr %2, align 8, !tbaa !13
  %4 = getelementptr inbounds nuw %struct.lean_object, ptr %3, i32 0, i32 1
  %5 = load i32, ptr %4, align 4
  %6 = lshr i32 %5, 24
  %7 = trunc i32 %6 to i8
  ret i8 %7
}

; Function Attrs: inlinehint mustprogress nounwind uwtable
define internal noundef i64 @_ZL10lean_unboxP11lean_object(ptr noundef %0) #6 {
  %2 = alloca ptr, align 8
  store ptr %0, ptr %2, align 8, !tbaa !13
  %3 = load ptr, ptr %2, align 8, !tbaa !13
  %4 = ptrtoint ptr %3 to i64
  %5 = lshr i64 %4, 1
  ret i64 %5
}

; Function Attrs: alwaysinline mustprogress nounwind uwtable
define internal noundef zeroext i1 @_ZL14lean_is_scalarP11lean_object(ptr noundef %0) #10 {
  %2 = alloca ptr, align 8
  store ptr %0, ptr %2, align 8, !tbaa !13
  %3 = load ptr, ptr %2, align 8, !tbaa !13
  %4 = ptrtoint ptr %3 to i64
  %5 = and i64 %4, 1
  %6 = icmp eq i64 %5, 1
  ret i1 %6
}

; Function Attrs: inlinehint mustprogress uwtable
define internal noundef i32 @_ZL12lean_obj_tagP11lean_object(ptr noundef %0) #5 {
  %2 = alloca i32, align 4
  %3 = alloca ptr, align 8
  store ptr %0, ptr %3, align 8, !tbaa !13
  %4 = load ptr, ptr %3, align 8, !tbaa !13
  %5 = call noundef zeroext i1 @_ZL14lean_is_scalarP11lean_object(ptr noundef %4)
  br i1 %5, label %6, label %10

6:                                                ; preds = %1
  %7 = load ptr, ptr %3, align 8, !tbaa !13
  %8 = call noundef i64 @_ZL10lean_unboxP11lean_object(ptr noundef %7)
  %9 = trunc i64 %8 to i32
  store i32 %9, ptr %2, align 4
  br label %14

10:                                               ; preds = %1
  %11 = load ptr, ptr %3, align 8, !tbaa !13
  %12 = call noundef zeroext i8 @_ZL12lean_ptr_tagP11lean_object(ptr noundef %11)
  %13 = zext i8 %12 to i32
  store i32 %13, ptr %2, align 4
  br label %14

14:                                               ; preds = %10, %6
  %15 = load i32, ptr %2, align 4
  ret i32 %15
}

; Function Attrs: inlinehint mustprogress uwtable
define linkonce_odr hidden noundef i32 @_ZN4lean7obj_tagEP11lean_object(ptr noundef %0) #5 comdat {
  %2 = alloca ptr, align 8
  store ptr %0, ptr %2, align 8, !tbaa !13
  %3 = load ptr, ptr %2, align 8, !tbaa !13
  %4 = call noundef i32 @_ZL12lean_obj_tagP11lean_object(ptr noundef %3)
  ret i32 %4
}

; Function Attrs: inlinehint mustprogress nounwind uwtable
define linkonce_odr noundef i32 @_ZStorSt12_Ios_IostateS_(i32 noundef %0, i32 noundef %1) #6 comdat {
  %3 = alloca i32, align 4
  %4 = alloca i32, align 4
  store i32 %0, ptr %3, align 4, !tbaa !92
  store i32 %1, ptr %4, align 4, !tbaa !92
  %5 = load i32, ptr %3, align 4, !tbaa !92
  %6 = load i32, ptr %4, align 4, !tbaa !92
  %7 = or i32 %5, %6
  ret i32 %7
}

; Function Attrs: mustprogress nounwind uwtable
define available_externally noundef i32 @_ZNKSt9basic_iosIcSt11char_traitsIcEE7rdstateEv(ptr noundef nonnull align 8 dereferenceable(264) %0) #0 align 2 {
  %2 = alloca ptr, align 8
  store ptr %0, ptr %2, align 8, !tbaa !90
  %3 = load ptr, ptr %2, align 8
  %4 = getelementptr inbounds nuw %"class.std::ios_base", ptr %3, i32 0, i32 5
  %5 = load i32, ptr %4, align 8, !tbaa !94
  ret i32 %5
}

; Function Attrs: mustprogress uwtable
define linkonce_odr hidden noundef i32 @_ZN4lean4name4kindEP11lean_object(ptr noundef %0) #1 comdat align 2 {
  %2 = alloca ptr, align 8
  store ptr %0, ptr %2, align 8, !tbaa !13
  %3 = load ptr, ptr %2, align 8, !tbaa !13
  %4 = call noundef i32 @_ZN4lean7obj_tagEP11lean_object(ptr noundef %3)
  ret i32 %4
}

; Function Attrs: mustprogress nounwind uwtable
define linkonce_odr hidden noundef ptr @_ZNK4lean10object_ref3rawEv(ptr noundef nonnull align 8 dereferenceable(8) %0) #0 comdat align 2 {
  %2 = alloca ptr, align 8
  store ptr %0, ptr %2, align 8, !tbaa !14
  %3 = load ptr, ptr %2, align 8
  %4 = getelementptr inbounds nuw %"class.lean::object_ref", ptr %3, i32 0, i32 0
  %5 = load ptr, ptr %4, align 8, !tbaa !16
  ret ptr %5
}

; Function Attrs: mustprogress nounwind uwtable
define linkonce_odr hidden noundef i64 @_ZNSt11char_traitsIcE6lengthEPKc(ptr noundef %0) #0 comdat align 2 {
  %2 = alloca ptr, align 8
  store ptr %0, ptr %2, align 8, !tbaa !7
  %3 = load ptr, ptr %2, align 8, !tbaa !7
  %4 = call i64 @strlen(ptr noundef %3) #17
  ret i64 %4
}

; Function Attrs: mustprogress uwtable
define available_externally void @_ZNSt9basic_iosIcSt11char_traitsIcEE8setstateESt12_Ios_Iostate(ptr noundef nonnull align 8 dereferenceable(264) %0, i32 noundef %1) #1 align 2 {
  %3 = alloca ptr, align 8
  %4 = alloca i32, align 4
  store ptr %0, ptr %3, align 8, !tbaa !90
  store i32 %1, ptr %4, align 4, !tbaa !92
  %5 = load ptr, ptr %3, align 8
  %6 = call noundef i32 @_ZNKSt9basic_iosIcSt11char_traitsIcEE7rdstateEv(ptr noundef nonnull align 8 dereferenceable(264) %5)
  %7 = load i32, ptr %4, align 4, !tbaa !92
  %8 = call noundef i32 @_ZStorSt12_Ios_IostateS_(i32 noundef %6, i32 noundef %7)
  call void @_ZNSt9basic_iosIcSt11char_traitsIcEE5clearESt12_Ios_Iostate(ptr noundef nonnull align 8 dereferenceable(264) %5, i32 noundef %8)
  ret void
}

; Function Attrs: mustprogress uwtable
define linkonce_odr hidden noundef i32 @_ZNK4lean4name4kindEv(ptr noundef nonnull align 8 dereferenceable(8) %0) #1 comdat align 2 {
  %2 = alloca ptr, align 8
  store ptr %0, ptr %2, align 8, !tbaa !11
  %3 = load ptr, ptr %2, align 8
  %4 = call noundef ptr @_ZNK4lean10object_ref3rawEv(ptr noundef nonnull align 8 dereferenceable(8) %3)
  %5 = call noundef i32 @_ZN4lean4name4kindEP11lean_object(ptr noundef %4)
  ret i32 %5
}

; Function Attrs: inlinehint mustprogress uwtable
define available_externally noundef nonnull align 8 dereferenceable(8) ptr @_ZStlsISt11char_traitsIcEERSt13basic_ostreamIcT_ES5_PKc(ptr noundef nonnull align 8 dereferenceable(8) %0, ptr noundef %1) #5 {
  %3 = alloca ptr, align 8
  %4 = alloca ptr, align 8
  store ptr %0, ptr %3, align 8, !tbaa !58
  store ptr %1, ptr %4, align 8, !tbaa !7
  %5 = load ptr, ptr %4, align 8, !tbaa !7
  %6 = icmp ne ptr %5, null
  br i1 %6, label %13, label %7

7:                                                ; preds = %2
  %8 = load ptr, ptr %3, align 8, !tbaa !58
  %9 = load ptr, ptr %8, align 8, !tbaa !56
  %10 = getelementptr i8, ptr %9, i64 -24
  %11 = load i64, ptr %10, align 8
  %12 = getelementptr inbounds i8, ptr %8, i64 %11
  call void @_ZNSt9basic_iosIcSt11char_traitsIcEE8setstateESt12_Ios_Iostate(ptr noundef nonnull align 8 dereferenceable(264) %12, i32 noundef 1)
  br label %19

13:                                               ; preds = %2
  %14 = load ptr, ptr %3, align 8, !tbaa !58
  %15 = load ptr, ptr %4, align 8, !tbaa !7
  %16 = load ptr, ptr %4, align 8, !tbaa !7
  %17 = call noundef i64 @_ZNSt11char_traitsIcE6lengthEPKc(ptr noundef %16)
  %18 = call noundef nonnull align 8 dereferenceable(8) ptr @_ZSt16__ostream_insertIcSt11char_traitsIcEERSt13basic_ostreamIT_T0_ES6_PKS3_l(ptr noundef nonnull align 8 dereferenceable(8) %14, ptr noundef %15, i64 noundef %17)
  br label %19

19:                                               ; preds = %13, %7
  %20 = load ptr, ptr %3, align 8, !tbaa !58
  ret ptr %20
}

; Function Attrs: mustprogress uwtable
define linkonce_odr hidden noundef zeroext i1 @_ZNK4lean4name12is_anonymousEv(ptr noundef nonnull align 8 dereferenceable(8) %0) #1 comdat align 2 {
  %2 = alloca ptr, align 8
  store ptr %0, ptr %2, align 8, !tbaa !11
  %3 = load ptr, ptr %2, align 8
  %4 = call noundef i32 @_ZNK4lean4name4kindEv(ptr noundef nonnull align 8 dereferenceable(8) %3)
  %5 = icmp eq i32 %4, 0
  ret i1 %5
}

; Function Attrs: mustprogress uwtable
define internal void @_ZN4leanL12display_nameERSoRKNS_4nameEbPKc(ptr noundef nonnull align 8 dereferenceable(8) %0, ptr noundef nonnull align 8 dereferenceable(8) %1, i1 noundef zeroext %2, ptr noundef %3) #1 {
  %5 = alloca ptr, align 8
  %6 = alloca ptr, align 8
  %7 = alloca i8, align 1
  %8 = alloca ptr, align 8
  store ptr %0, ptr %5, align 8, !tbaa !58
  store ptr %1, ptr %6, align 8, !tbaa !11
  %9 = zext i1 %2 to i8
  store i8 %9, ptr %7, align 1, !tbaa !45
  store ptr %3, ptr %8, align 8, !tbaa !7
  %10 = load ptr, ptr %6, align 8, !tbaa !11
  %11 = call noundef zeroext i1 @_ZNK4lean4name12is_anonymousEv(ptr noundef nonnull align 8 dereferenceable(8) %10)
  br i1 %11, label %12, label %15

12:                                               ; preds = %4
  %13 = load ptr, ptr %5, align 8, !tbaa !58
  %14 = call noundef nonnull align 8 dereferenceable(8) ptr @_ZStlsISt11char_traitsIcEERSt13basic_ostreamIcT_ES5_PKc(ptr noundef nonnull align 8 dereferenceable(8) %13, ptr noundef @.str.2)
  br label %21

15:                                               ; preds = %4
  %16 = load ptr, ptr %5, align 8, !tbaa !58
  %17 = load ptr, ptr %6, align 8, !tbaa !11
  %18 = load i8, ptr %7, align 1, !tbaa !45, !range !48, !noundef !49
  %19 = trunc i8 %18 to i1
  %20 = load ptr, ptr %8, align 8, !tbaa !7
  call void @_ZN4leanL17display_name_coreERSoRKNS_4nameEbPKc(ptr noundef nonnull align 8 dereferenceable(8) %16, ptr noundef nonnull align 8 dereferenceable(8) %17, i1 noundef zeroext %19, ptr noundef %20)
  br label %21

21:                                               ; preds = %15, %12
  ret void
}

; Function Attrs: mustprogress uwtable
define noundef nonnull align 8 dereferenceable(8) ptr @_ZN4leanlsERSoRKNS_4nameE(ptr noundef nonnull align 8 dereferenceable(8) %0, ptr noundef nonnull align 8 dereferenceable(8) %1) #1 {
  %3 = alloca ptr, align 8
  %4 = alloca ptr, align 8
  store ptr %0, ptr %3, align 8, !tbaa !58
  store ptr %1, ptr %4, align 8, !tbaa !11
  %5 = load ptr, ptr %3, align 8, !tbaa !58
  %6 = load ptr, ptr %4, align 8, !tbaa !11
  call void @_ZN4leanL12display_nameERSoRKNS_4nameEbPKc(ptr noundef nonnull align 8 dereferenceable(8) %5, ptr noundef nonnull align 8 dereferenceable(8) %6, i1 noundef zeroext false, ptr noundef @.str)
  %7 = load ptr, ptr %3, align 8, !tbaa !58
  ret ptr %7
}