; Function Attrs: mustprogress uwtable
define noundef nonnull align 8 dereferenceable(8) ptr @_ZN4leanlsERSoRKNS_4nameE(ptr noundef nonnull returned align 8 dereferenceable(8) %0, ptr noundef nonnull readonly align 8 captures(none) dereferenceable(8) %1) local_unnamed_addr #1 {
  %3 = load ptr, ptr %1, align 8, !tbaa !6
  %4 = ptrtoint ptr %3 to i64
  %5 = and i64 %4, 1
  %.not.i.i.i.i.i.i = icmp eq i64 %5, 0
  br i1 %.not.i.i.i.i.i.i, label %9, label %6

6:                                                ; preds = %2
  %7 = lshr i64 %4, 1
  %8 = trunc i64 %7 to i32
  br label %_ZNK4lean4name12is_anonymousEv.exit.i

9:                                                ; preds = %2
  %10 = getelementptr i8, ptr %3, i64 4
  %.val.i.i.i.i.i.i = load i32, ptr %10, align 4
  %11 = lshr i32 %.val.i.i.i.i.i.i, 24
  br label %_ZNK4lean4name12is_anonymousEv.exit.i

_ZNK4lean4name12is_anonymousEv.exit.i:            ; preds = %9, %6
  %.0.i.i.i.i.i.i = phi i32 [ %8, %6 ], [ %11, %9 ]
  %12 = icmp eq i32 %.0.i.i.i.i.i.i, 0
  br i1 %12, label %13, label %15

13:                                               ; preds = %_ZNK4lean4name12is_anonymousEv.exit.i
  %14 = tail call noundef nonnull align 8 dereferenceable(8) ptr @_ZSt16__ostream_insertIcSt11char_traitsIcEERSt13basic_ostreamIT_T0_ES6_PKS3_l(ptr noundef nonnull align 8 dereferenceable(8) %0, ptr noundef nonnull @.str.2, i64 noundef 11)
  br label %_ZN4leanL12display_nameERSoRKNS_4nameEbPKc.exit

15:                                               ; preds = %_ZNK4lean4name12is_anonymousEv.exit.i
  tail call fastcc void @_ZN4leanL17display_name_coreERSoRKNS_4nameEbPKc(ptr noundef nonnull align 8 dereferenceable(8) %0, ptr noundef nonnull readonly align 8 dereferenceable(8) %1, i1 noundef zeroext false, ptr noundef nonnull @.str)
  br label %_ZN4leanL12display_nameERSoRKNS_4nameEbPKc.exit

_ZN4leanL12display_nameERSoRKNS_4nameEbPKc.exit:  ; preds = %13, %15
  ret ptr %0
}